; ModuleID = '54/79.c'
source_filename = "54/79.c"
target datalayout = "e-m:e-p270:32:32-p271:32:32-p272:64:64-i64:64-f80:128-n8:16:32:64-S128"
target triple = "x86_64-pc-linux-gnu"

@.str = private unnamed_addr constant [5 x i8] c"%d%d\00", align 1
@.str.1 = private unnamed_addr constant [3 x i8] c"%d\00", align 1

; Function Attrs: noinline nounwind uwtable
define dso_local void @main() #0 {
  %1 = alloca i32, align 4
  %2 = alloca i32, align 4
  %3 = alloca i32, align 4
  %4 = alloca i32, align 4
  %5 = alloca i32, align 4
  %6 = alloca [100 x i32], align 16
  %7 = call i32 (i8*, ...) @__isoc99_scanf(i8* getelementptr inbounds ([5 x i8], [5 x i8]* @.str, i64 0, i64 0), i32* %2, i32* %4)
  store i32 0, i32* %1, align 4
  br label %8

8:                                                ; preds = %15, %0
  %9 = load i32, i32* %1, align 4
  %10 = icmp slt i32 %9, 100
  br i1 %10, label %11, label %18

11:                                               ; preds = %8
  %12 = load i32, i32* %1, align 4
  %13 = sext i32 %12 to i64
  %14 = getelementptr inbounds [100 x i32], [100 x i32]* %6, i64 0, i64 %13
  store i32 0, i32* %14, align 4
  br label %15

15:                                               ; preds = %11
  %16 = load i32, i32* %1, align 4
  %17 = add nsw i32 %16, 1
  store i32 %17, i32* %1, align 4
  br label %8

18:                                               ; preds = %8
  store i32 1, i32* %5, align 4
  br label %19

19:                                               ; preds = %70, %18
  %20 = load i32, i32* %5, align 4
  %21 = load i32, i32* %2, align 4
  %22 = sext i32 %21 to i64
  %23 = getelementptr inbounds [100 x i32], [100 x i32]* %6, i64 0, i64 %22
  store i32 %20, i32* %23, align 4
  %24 = load i32, i32* %2, align 4
  %25 = sub nsw i32 %24, 1
  store i32 %25, i32* %1, align 4
  br label %26

26:                                               ; preds = %61, %19
  %27 = load i32, i32* %1, align 4
  %28 = icmp sgt i32 %27, 0
  br i1 %28, label %29, label %64

29:                                               ; preds = %26
  %30 = load i32, i32* %1, align 4
  %31 = add nsw i32 %30, 1
  %32 = sext i32 %31 to i64
  %33 = getelementptr inbounds [100 x i32], [100 x i32]* %6, i64 0, i64 %32
  %34 = load i32, i32* %33, align 4
  %35 = load i32, i32* %2, align 4
  %36 = mul nsw i32 %34, %35
  %37 = load i32, i32* %4, align 4
  %38 = add nsw i32 %36, %37
  %39 = load i32, i32* %2, align 4
  %40 = sub nsw i32 %39, 1
  %41 = srem i32 %38, %40
  %42 = icmp eq i32 %41, 0
  br i1 %42, label %43, label %59

43:                                               ; preds = %29
  %44 = load i32, i32* %1, align 4
  %45 = add nsw i32 %44, 1
  %46 = sext i32 %45 to i64
  %47 = getelementptr inbounds [100 x i32], [100 x i32]* %6, i64 0, i64 %46
  %48 = load i32, i32* %47, align 4
  %49 = load i32, i32* %2, align 4
  %50 = mul nsw i32 %48, %49
  %51 = load i32, i32* %4, align 4
  %52 = add nsw i32 %50, %51
  %53 = load i32, i32* %2, align 4
  %54 = sub nsw i32 %53, 1
  %55 = sdiv i32 %52, %54
  %56 = load i32, i32* %1, align 4
  %57 = sext i32 %56 to i64
  %58 = getelementptr inbounds [100 x i32], [100 x i32]* %6, i64 0, i64 %57
  store i32 %55, i32* %58, align 4
  br label %60

59:                                               ; preds = %29
  br label %64

60:                                               ; preds = %43
  br label %61

61:                                               ; preds = %60
  %62 = load i32, i32* %1, align 4
  %63 = add nsw i32 %62, -1
  store i32 %63, i32* %1, align 4
  br label %26

64:                                               ; preds = %59, %26
  %65 = getelementptr inbounds [100 x i32], [100 x i32]* %6, i64 0, i64 1
  %66 = load i32, i32* %65, align 4
  %67 = icmp ne i32 %66, 0
  br i1 %67, label %68, label %69

68:                                               ; preds = %64
  br label %73

69:                                               ; preds = %64
  br label %70

70:                                               ; preds = %69
  %71 = load i32, i32* %5, align 4
  %72 = add nsw i32 %71, 1
  store i32 %72, i32* %5, align 4
  br label %19

73:                                               ; preds = %68
  %74 = getelementptr inbounds [100 x i32], [100 x i32]* %6, i64 0, i64 1
  %75 = load i32, i32* %74, align 4
  %76 = load i32, i32* %2, align 4
  %77 = mul nsw i32 %75, %76
  %78 = load i32, i32* %4, align 4
  %79 = add nsw i32 %77, %78
  store i32 %79, i32* %3, align 4
  %80 = load i32, i32* %3, align 4
  %81 = call i32 (i8*, ...) @printf(i8* getelementptr inbounds ([3 x i8], [3 x i8]* @.str.1, i64 0, i64 0), i32 %80)
  ret void
}

declare dso_local i32 @__isoc99_scanf(i8*, ...) #1

declare dso_local i32 @printf(i8*, ...) #1


!llvm.module.flags = !{!0}
!llvm.ident = !{!1}

!0 = !{i32 1, !"wchar_size", i32 4}
!1 = !{!"clang version 10.0.0-4ubuntu1 "}
